target datalayout = "e-m:e-p270:32:32-p271:32:32-p272:64:64-i64:64-i128:128-f80:128-n8:16:32:64-S128"
target triple = "x86_64-pc-linux-gnu"

; Function Attrs: nounwind uwtable
define ptr @Abc_NtkDarFraigPart(ptr noundef %0, i32 noundef %1, i32 noundef %2, i32 noundef %3, i32 noundef %4) #0 {
  %6 = alloca ptr, align 8
  %7 = alloca ptr, align 8
  %8 = alloca i32, align 4
  %9 = alloca i32, align 4
  %10 = alloca i32, align 4
  %11 = alloca i32, align 4
  %12 = alloca ptr, align 8
  %13 = alloca ptr, align 8
  %14 = alloca ptr, align 8
  store ptr %0, ptr %7, align 8
  store i32 %1, ptr %8, align 4
  store i32 %2, ptr %9, align 4
  store i32 %3, ptr %10, align 4
  store i32 %4, ptr %11, align 4
  %15 = load ptr, ptr %7, align 8
  %16 = call ptr @Abc_NtkToDar(ptr noundef %15, i32 noundef 0, i32 noundef 0)
  store ptr %16, ptr %13, align 8
  %17 = load ptr, ptr %13, align 8
  %18 = icmp eq ptr %17, null
  br i1 %18, label %19, label %20

19:                                               ; preds = %5
  store ptr null, ptr %6, align 8
  br label %33

20:                                               ; preds = %5
  %21 = load ptr, ptr %13, align 8
  store ptr %21, ptr %14, align 8
  %22 = load i32, ptr %8, align 4
  %23 = load i32, ptr %9, align 4
  %24 = load i32, ptr %10, align 4
  %25 = load i32, ptr %11, align 4
  %26 = call ptr @Aig_ManFraigPartitioned(ptr noundef %21, i32 noundef %22, i32 noundef %23, i32 noundef %24, i32 noundef %25)
  store ptr %26, ptr %13, align 8
  %27 = load ptr, ptr %14, align 8
  call void @Aig_ManStop(ptr noundef %27)
  %28 = load ptr, ptr %7, align 8
  %29 = load ptr, ptr %13, align 8
  %30 = call ptr @Abc_NtkFromDar(ptr noundef %28, ptr noundef %29)
  store ptr %30, ptr %12, align 8
  %31 = load ptr, ptr %13, align 8
  call void @Aig_ManStop(ptr noundef %31)
  %32 = load ptr, ptr %12, align 8
  store ptr %32, ptr %6, align 8
  br label %33

33:                                               ; preds = %20, %19
  %34 = load ptr, ptr %6, align 8
  ret ptr %34
}