; Function Attrs: nounwind uwtable
define noundef ptr @Abc_NtkDarFraigPart(ptr noundef %0, i32 noundef %1, i32 noundef %2, i32 noundef %3, i32 noundef %4) local_unnamed_addr #1 {
  %6 = tail call ptr @Abc_NtkToDar(ptr noundef %0, i32 noundef 0, i32 noundef 0)
  %7 = icmp eq ptr %6, null
  br i1 %7, label %11, label %8

8:                                                ; preds = %5
  %9 = tail call ptr @Aig_ManFraigPartitioned(ptr noundef nonnull %6, i32 noundef %1, i32 noundef %2, i32 noundef %3, i32 noundef %4) #19
  tail call void @Aig_ManStop(ptr noundef nonnull %6) #19
  %10 = tail call ptr @Abc_NtkFromDar(ptr noundef %0, ptr noundef %9)
  tail call void @Aig_ManStop(ptr noundef %9) #19
  br label %11

11:                                               ; preds = %5, %8
  %.0 = phi ptr [ %10, %8 ], [ null, %5 ]
  ret ptr %.0
}